target datalayout = "e-m:e-p270:32:32-p271:32:32-p272:64:64-i64:64-i128:128-f80:128-n8:16:32:64-S128"
target triple = "x86_64-pc-linux-gnu"

%struct.exr_attr_string_t = type { i32, i32, ptr }
%struct._priv_exr_context_t = type { i8, i8, i8, i8, i8, i8, i8, i8, %struct.exr_attr_string_t, %struct.exr_attr_string_t, ptr, ptr, ptr, ptr, ptr, ptr, ptr, ptr, i32, i32, i32, i32, i32, float, ptr, ptr, ptr, i64, ptr, ptr, i64, i32, i32, i32, i32, %struct._priv_exr_part_t, ptr, ptr, %struct.exr_attribute_list, %union.pthread_mutex_t, i8, i8, [2 x i8], i32 }
%struct._priv_exr_part_t = type { i32, i32, %struct.exr_attribute_list, ptr, ptr, ptr, ptr, ptr, ptr, ptr, ptr, ptr, ptr, ptr, ptr, ptr, ptr, %struct.exr_attr_box2i_t, %struct.exr_attr_box2i_t, i32, i32, i32, float, i32, i32, ptr, ptr, ptr, ptr, i64, i16, i16, i32, i64, i64 }
%struct.exr_attr_box2i_t = type { %struct.exr_attr_v2i_t, %struct.exr_attr_v2i_t }
%struct.exr_attr_v2i_t = type { i32, i32 }
%struct.exr_attribute_list = type { i32, i32, ptr, ptr }
%union.pthread_mutex_t = type { %struct.__pthread_mutex_s }
%struct.__pthread_mutex_s = type { i32, i32, i32, i32, i32, i16, i16, %struct.__pthread_internal_list }
%struct.__pthread_internal_list = type { ptr, ptr }

@.str = private unnamed_addr constant [56 x i8] c"Received request to allocate negative sized string (%d)\00", align 1
@.str.1 = private unnamed_addr constant [49 x i8] c"Invalid reference to string object to initialize\00", align 1
@.str.4 = private unnamed_addr constant [54 x i8] c"Invalid (NULL) arguments to string create with length\00", align 1

; Function Attrs: nounwind uwtable
define hidden i32 @exr_attr_string_init(ptr noundef %0, ptr noundef %1, i32 noundef %2) #0 {
  %4 = alloca i32, align 4
  %5 = alloca ptr, align 8
  %6 = alloca ptr, align 8
  %7 = alloca i32, align 4
  %8 = alloca %struct.exr_attr_string_t, align 8
  %9 = alloca i32, align 4
  store ptr %0, ptr %5, align 8, !tbaa !3
  store ptr %1, ptr %6, align 8, !tbaa !8
  store i32 %2, ptr %7, align 4, !tbaa !9
  call void @llvm.lifetime.start.p0(i64 16, ptr %8) #6
  call void @llvm.memset.p0.i64(ptr align 8 %8, i8 0, i64 16, i1 false)
  %10 = load ptr, ptr %5, align 8, !tbaa !3
  %11 = icmp ne ptr %10, null
  br i1 %11, label %13, label %12

12:                                               ; preds = %3
  store i32 2, ptr %4, align 4
  store i32 1, ptr %9, align 4
  br label %61

13:                                               ; preds = %3
  %14 = load i32, ptr %7, align 4, !tbaa !9
  %15 = icmp slt i32 %14, 0
  br i1 %15, label %16, label %23

16:                                               ; preds = %13
  %17 = load ptr, ptr %5, align 8, !tbaa !3
  %18 = getelementptr inbounds nuw %struct._priv_exr_context_t, ptr %17, i32 0, i32 14
  %19 = load ptr, ptr %18, align 8, !tbaa !11
  %20 = load ptr, ptr %5, align 8, !tbaa !3
  %21 = load i32, ptr %7, align 4, !tbaa !9
  %22 = call i32 (ptr, i32, ptr, ...) %19(ptr noundef %20, i32 noundef 3, ptr noundef @.str, i32 noundef %21)
  store i32 %22, ptr %4, align 4
  store i32 1, ptr %9, align 4
  br label %61

23:                                               ; preds = %13
  %24 = load ptr, ptr %6, align 8, !tbaa !8
  %25 = icmp ne ptr %24, null
  br i1 %25, label %32, label %26

26:                                               ; preds = %23
  %27 = load ptr, ptr %5, align 8, !tbaa !3
  %28 = getelementptr inbounds nuw %struct._priv_exr_context_t, ptr %27, i32 0, i32 13
  %29 = load ptr, ptr %28, align 8, !tbaa !26
  %30 = load ptr, ptr %5, align 8, !tbaa !3
  %31 = call i32 %29(ptr noundef %30, i32 noundef 3, ptr noundef @.str.1)
  store i32 %31, ptr %4, align 4
  store i32 1, ptr %9, align 4
  br label %61

32:                                               ; preds = %23
  %33 = load ptr, ptr %6, align 8, !tbaa !8
  call void @llvm.memcpy.p0.p0.i64(ptr align 8 %33, ptr align 8 %8, i64 16, i1 false), !tbaa.struct !27
  %34 = load ptr, ptr %5, align 8, !tbaa !3
  %35 = getelementptr inbounds nuw %struct._priv_exr_context_t, ptr %34, i32 0, i32 16
  %36 = load ptr, ptr %35, align 8, !tbaa !29
  %37 = load i32, ptr %7, align 4, !tbaa !9
  %38 = add nsw i32 %37, 1
  %39 = sext i32 %38 to i64
  %40 = call ptr %36(i64 noundef %39)
  %41 = load ptr, ptr %6, align 8, !tbaa !8
  %42 = getelementptr inbounds nuw %struct.exr_attr_string_t, ptr %41, i32 0, i32 2
  store ptr %40, ptr %42, align 8, !tbaa !30
  %43 = load ptr, ptr %6, align 8, !tbaa !8
  %44 = getelementptr inbounds nuw %struct.exr_attr_string_t, ptr %43, i32 0, i32 2
  %45 = load ptr, ptr %44, align 8, !tbaa !30
  %46 = icmp eq ptr %45, null
  br i1 %46, label %47, label %53

47:                                               ; preds = %32
  %48 = load ptr, ptr %5, align 8, !tbaa !3
  %49 = getelementptr inbounds nuw %struct._priv_exr_context_t, ptr %48, i32 0, i32 12
  %50 = load ptr, ptr %49, align 8, !tbaa !31
  %51 = load ptr, ptr %5, align 8, !tbaa !3
  %52 = call i32 %50(ptr noundef %51, i32 noundef 1)
  store i32 %52, ptr %4, align 4
  store i32 1, ptr %9, align 4
  br label %61

53:                                               ; preds = %32
  %54 = load i32, ptr %7, align 4, !tbaa !9
  %55 = load ptr, ptr %6, align 8, !tbaa !8
  %56 = getelementptr inbounds nuw %struct.exr_attr_string_t, ptr %55, i32 0, i32 0
  store i32 %54, ptr %56, align 8, !tbaa !32
  %57 = load i32, ptr %7, align 4, !tbaa !9
  %58 = add nsw i32 %57, 1
  %59 = load ptr, ptr %6, align 8, !tbaa !8
  %60 = getelementptr inbounds nuw %struct.exr_attr_string_t, ptr %59, i32 0, i32 1
  store i32 %58, ptr %60, align 4, !tbaa !33
  store i32 0, ptr %4, align 4
  store i32 1, ptr %9, align 4
  br label %61

61:                                               ; preds = %53, %47, %26, %16, %12
  call void @llvm.lifetime.end.p0(i64 16, ptr %8) #6
  %62 = load i32, ptr %4, align 4
  ret i32 %62
}

; Function Attrs: nounwind uwtable
define hidden i32 @exr_attr_string_create_with_length(ptr noundef %0, ptr noundef %1, ptr noundef %2, i32 noundef %3) #0 {
  %5 = alloca i32, align 4
  %6 = alloca ptr, align 8
  %7 = alloca ptr, align 8
  %8 = alloca ptr, align 8
  %9 = alloca i32, align 4
  %10 = alloca i32, align 4
  %11 = alloca i32, align 4
  %12 = alloca ptr, align 8
  store ptr %0, ptr %6, align 8, !tbaa !3
  store ptr %1, ptr %7, align 8, !tbaa !8
  store ptr %2, ptr %8, align 8, !tbaa !28
  store i32 %3, ptr %9, align 4, !tbaa !9
  call void @llvm.lifetime.start.p0(i64 4, ptr %10) #6
  %13 = load ptr, ptr %6, align 8, !tbaa !3
  %14 = icmp ne ptr %13, null
  br i1 %14, label %16, label %15

15:                                               ; preds = %4
  store i32 2, ptr %5, align 4
  store i32 1, ptr %11, align 4
  br label %61

16:                                               ; preds = %4
  %17 = load ptr, ptr %7, align 8, !tbaa !8
  %18 = icmp ne ptr %17, null
  br i1 %18, label %25, label %19

19:                                               ; preds = %16
  %20 = load ptr, ptr %6, align 8, !tbaa !3
  %21 = getelementptr inbounds nuw %struct._priv_exr_context_t, ptr %20, i32 0, i32 13
  %22 = load ptr, ptr %21, align 8, !tbaa !26
  %23 = load ptr, ptr %6, align 8, !tbaa !3
  %24 = call i32 %22(ptr noundef %23, i32 noundef 3, ptr noundef @.str.4)
  store i32 %24, ptr %5, align 4
  store i32 1, ptr %11, align 4
  br label %61

25:                                               ; preds = %16
  %26 = load ptr, ptr %6, align 8, !tbaa !3
  %27 = load ptr, ptr %7, align 8, !tbaa !8
  %28 = load i32, ptr %9, align 4, !tbaa !9
  %29 = call i32 @exr_attr_string_init(ptr noundef %26, ptr noundef %27, i32 noundef %28)
  store i32 %29, ptr %10, align 4, !tbaa !9
  %30 = load i32, ptr %10, align 4, !tbaa !9
  %31 = icmp eq i32 %30, 0
  br i1 %31, label %32, label %59

32:                                               ; preds = %25
  call void @llvm.lifetime.start.p0(i64 8, ptr %12) #6
  %33 = load ptr, ptr %7, align 8, !tbaa !8
  %34 = getelementptr inbounds nuw %struct.exr_attr_string_t, ptr %33, i32 0, i32 2
  %35 = load ptr, ptr %34, align 8, !tbaa !30
  %36 = ptrtoint ptr %35 to i64
  %37 = inttoptr i64 %36 to ptr
  store ptr %37, ptr %12, align 8, !tbaa !28
  %38 = load i32, ptr %9, align 4, !tbaa !9
  %39 = icmp sgt i32 %38, 0
  br i1 %39, label %40, label %54

40:                                               ; preds = %32
  %41 = load ptr, ptr %8, align 8, !tbaa !28
  %42 = icmp ne ptr %41, null
  br i1 %42, label %43, label %49

43:                                               ; preds = %40
  %44 = load ptr, ptr %12, align 8, !tbaa !28
  %45 = load ptr, ptr %8, align 8, !tbaa !28
  %46 = load i32, ptr %9, align 4, !tbaa !9
  %47 = sext i32 %46 to i64
  %48 = call ptr @strncpy(ptr noundef %44, ptr noundef %45, i64 noundef %47) #6
  br label %53

49:                                               ; preds = %40
  %50 = load ptr, ptr %12, align 8, !tbaa !28
  %51 = load i32, ptr %9, align 4, !tbaa !9
  %52 = sext i32 %51 to i64
  call void @llvm.memset.p0.i64(ptr align 1 %50, i8 0, i64 %52, i1 false)
  br label %53

53:                                               ; preds = %49, %43
  br label %54

54:                                               ; preds = %53, %32
  %55 = load ptr, ptr %12, align 8, !tbaa !28
  %56 = load i32, ptr %9, align 4, !tbaa !9
  %57 = sext i32 %56 to i64
  %58 = getelementptr inbounds i8, ptr %55, i64 %57
  store i8 0, ptr %58, align 1, !tbaa !35
  call void @llvm.lifetime.end.p0(i64 8, ptr %12) #6
  br label %59

59:                                               ; preds = %54, %25
  %60 = load i32, ptr %10, align 4, !tbaa !9
  store i32 %60, ptr %5, align 4
  store i32 1, ptr %11, align 4
  br label %61

61:                                               ; preds = %59, %19, %15
  call void @llvm.lifetime.end.p0(i64 4, ptr %10) #6
  %62 = load i32, ptr %5, align 4
  ret i32 %62
}