; Function Attrs: nounwind uwtable
define hidden i32 @exr_attr_string_create_with_length(ptr noundef %0, ptr noundef %1, ptr noundef readonly %2, i32 noundef %3) local_unnamed_addr #0 {
  %.not = icmp eq ptr %0, null
  br i1 %.not, label %41, label %5

5:                                                ; preds = %4
  %.not23 = icmp eq ptr %1, null
  br i1 %.not23, label %6, label %10

6:                                                ; preds = %5
  %7 = getelementptr inbounds nuw i8, ptr %0, i64 64
  %8 = load ptr, ptr %7, align 8, !tbaa !22
  %9 = tail call i32 %8(ptr noundef nonnull %0, i32 noundef 3, ptr noundef nonnull @.str.4) #4
  br label %41

10:                                               ; preds = %5
  %11 = icmp slt i32 %3, 0
  br i1 %11, label %12, label %16

12:                                               ; preds = %10
  %13 = getelementptr inbounds nuw i8, ptr %0, i64 72
  %14 = load ptr, ptr %13, align 8, !tbaa !3
  %15 = tail call i32 (ptr, i32, ptr, ...) %14(ptr noundef nonnull %0, i32 noundef 3, ptr noundef nonnull @.str, i32 noundef %3) #4
  br label %exr_attr_string_init.exit

16:                                               ; preds = %10
  tail call void @llvm.memset.p0.i64(ptr noundef nonnull align 8 dereferenceable(16) %1, i8 0, i64 16, i1 false)
  %17 = getelementptr inbounds nuw i8, ptr %0, i64 88
  %18 = load ptr, ptr %17, align 8, !tbaa !23
  %19 = add nuw nsw i32 %3, 1
  %20 = zext nneg i32 %19 to i64
  %21 = tail call ptr %18(i64 noundef %20) #4
  %22 = getelementptr inbounds nuw i8, ptr %1, i64 8
  store ptr %21, ptr %22, align 8, !tbaa !24
  %23 = icmp eq ptr %21, null
  br i1 %23, label %24, label %exr_attr_string_init.exit.thread

24:                                               ; preds = %16
  %25 = getelementptr inbounds nuw i8, ptr %0, i64 56
  %26 = load ptr, ptr %25, align 8, !tbaa !25
  %27 = tail call i32 %26(ptr noundef nonnull %0, i32 noundef 1) #4
  br label %exr_attr_string_init.exit

exr_attr_string_init.exit.thread:                 ; preds = %16
  store i32 %3, ptr %1, align 8, !tbaa !26
  %28 = getelementptr inbounds nuw i8, ptr %1, i64 4
  store i32 %19, ptr %28, align 4, !tbaa !27
  br label %30

exr_attr_string_init.exit:                        ; preds = %12, %24
  %.0.i = phi i32 [ %15, %12 ], [ %27, %24 ]
  %29 = icmp eq i32 %.0.i, 0
  br i1 %29, label %exr_attr_string_init.exit._crit_edge, label %41

exr_attr_string_init.exit._crit_edge:             ; preds = %exr_attr_string_init.exit
  %.phi.trans.insert = getelementptr inbounds nuw i8, ptr %1, i64 8
  %.pre = load ptr, ptr %.phi.trans.insert, align 8, !tbaa !24
  br label %30

30:                                               ; preds = %exr_attr_string_init.exit._crit_edge, %exr_attr_string_init.exit.thread
  %31 = phi ptr [ %.pre, %exr_attr_string_init.exit._crit_edge ], [ %21, %exr_attr_string_init.exit.thread ]
  %32 = icmp sgt i32 %3, 0
  br i1 %32, label %33, label %38

33:                                               ; preds = %30
  %.not24 = icmp eq ptr %2, null
  %34 = zext nneg i32 %3 to i64
  br i1 %.not24, label %37, label %35

35:                                               ; preds = %33
  %36 = tail call ptr @strncpy(ptr noundef %31, ptr noundef nonnull %2, i64 noundef %34) #4
  br label %38

37:                                               ; preds = %33
  tail call void @llvm.memset.p0.i64(ptr align 1 %31, i8 0, i64 %34, i1 false)
  br label %38

38:                                               ; preds = %35, %37, %30
  %39 = sext i32 %3 to i64
  %40 = getelementptr inbounds i8, ptr %31, i64 %39
  store i8 0, ptr %40, align 1, !tbaa !28
  br label %41

41:                                               ; preds = %exr_attr_string_init.exit, %38, %4, %6
  %.0 = phi i32 [ %9, %6 ], [ 2, %4 ], [ 0, %38 ], [ %.0.i, %exr_attr_string_init.exit ]
  ret i32 %.0
}